; Function Attrs: mustprogress uwtable
define hidden void @_ZN4cvc58internal6theory11quantifiers8TermUtil20computeQuantContainsENS0_12NodeTemplateILb1EEERSt6vectorIS5_SaIS5_EE(ptr noundef readonly captures(none) %0, ptr noundef nonnull align 8 dereferenceable(24) %1) local_unnamed_addr #3 align 2 personality ptr @__gxx_personality_v0 {
  %3 = alloca %"class.cvc5::internal::NodeTemplate", align 8
  %4 = load ptr, ptr %0, align 8, !tbaa !6
  store ptr %4, ptr %3, align 8, !tbaa !6
  %5 = load i64, ptr %4, align 8
  %6 = lshr i64 %5, 40
  %7 = trunc nuw nsw i64 %6 to i32
  %8 = and i32 %7, 1048575
  %9 = icmp samesign ult i32 %8, 1048574
  br i1 %9, label %10, label %15, !prof !13

10:                                               ; preds = %2
  %11 = add i64 %5, 1099511627776
  %12 = and i64 %11, 1152920405095219200
  %13 = and i64 %5, -1152920405095219201
  %14 = or disjoint i64 %12, %13
  store i64 %14, ptr %4, align 8
  br label %_ZN4cvc58internal12NodeTemplateILb1EEC2ERKS2_.exit

15:                                               ; preds = %2
  %16 = icmp eq i32 %8, 1048574
  br i1 %16, label %17, label %_ZN4cvc58internal12NodeTemplateILb1EEC2ERKS2_.exit, !prof !14

17:                                               ; preds = %15
  %18 = or i64 %5, 1152920405095219200
  store i64 %18, ptr %4, align 8
  tail call void @_ZN4cvc58internal4expr9NodeValue20markRefCountMaxedOutEv(ptr noundef nonnull align 8 dereferenceable(24) %4)
  br label %_ZN4cvc58internal12NodeTemplateILb1EEC2ERKS2_.exit

_ZN4cvc58internal12NodeTemplateILb1EEC2ERKS2_.exit: ; preds = %10, %15, %17
  invoke void @_ZN4cvc58internal6theory11quantifiers8TermUtil26computeVarContainsInternalENS0_12NodeTemplateILb1EEENS0_4kind6Kind_tERSt6vectorIS5_SaIS5_EE(ptr noundef nonnull %3, i32 noundef 365, ptr noundef nonnull align 8 dereferenceable(24) %1)
          to label %19 unwind label %32

19:                                               ; preds = %_ZN4cvc58internal12NodeTemplateILb1EEC2ERKS2_.exit
  %20 = load i64, ptr %4, align 8
  %21 = and i64 %20, 1152920405095219200
  %.not.i.i = icmp eq i64 %21, 1152920405095219200
  br i1 %.not.i.i, label %_ZN4cvc58internal12NodeTemplateILb1EED2Ev.exit, label %22, !prof !14

22:                                               ; preds = %19
  %23 = add i64 %20, 1152920405095219200
  %24 = and i64 %23, 1152920405095219200
  %25 = and i64 %20, -1152920405095219201
  %26 = or disjoint i64 %24, %25
  store i64 %26, ptr %4, align 8
  %27 = icmp eq i64 %24, 0
  br i1 %27, label %28, label %_ZN4cvc58internal12NodeTemplateILb1EED2Ev.exit, !prof !14

28:                                               ; preds = %22
  invoke void @_ZN4cvc58internal4expr9NodeValue15markForDeletionEv(ptr noundef nonnull align 8 dereferenceable(24) %4)
          to label %_ZN4cvc58internal12NodeTemplateILb1EED2Ev.exit unwind label %29

29:                                               ; preds = %28
  %30 = landingpad { ptr, i32 }
          catch ptr null
  %31 = extractvalue { ptr, i32 } %30, 0
  tail call void @__clang_call_terminate(ptr %31) #25
  unreachable

_ZN4cvc58internal12NodeTemplateILb1EED2Ev.exit:   ; preds = %19, %22, %28
  ret void

32:                                               ; preds = %_ZN4cvc58internal12NodeTemplateILb1EEC2ERKS2_.exit
  %33 = landingpad { ptr, i32 }
          cleanup
  call void @_ZN4cvc58internal12NodeTemplateILb1EED2Ev(ptr noundef nonnull align 8 dereferenceable(8) %3) #24
  resume { ptr, i32 } %33
}